Certificate:
    Data:
        Version: 3 (0x2)
        Serial Number: 1 (0x1)
    Signature Algorithm: sha256WithRSAEncryption
        Issuer: C=US, ST=VA, L=Harrisonburg, O=ISAT, OU=BSISAT, CN=TNS
        Validity
            Not Before: Feb 23 23:48:10 2017 GMT
            Not After : Feb 23 23:48:10 2018 GMT
        Subject: C=US, ST=VA, L=Harrisonburg, O=ISAT, OU=Telecom, CN=DKCapstone
        Subject Public Key Info:
            Public Key Algorithm: rsaEncryption
                Public-Key: (2048 bit)
                Modulus:
                    00:ba:c6:8b:96:38:7b:0b:31:41:30:2f:d6:ba:a8:
                    41:b9:a1:fd:75:0c:b1:55:a3:50:45:aa:a0:76:65:
                    8e:35:b3:20:41:ca:bb:bc:e8:80:21:d5:3a:44:fc:
                    b8:c0:90:4e:62:a3:0e:05:fd:20:4b:4d:fe:b0:5f:
                    29:ce:61:9a:63:27:0c:af:96:39:54:30:6e:52:22:
                    8d:99:1c:7e:55:85:4a:f5:33:1a:5c:05:ab:52:cd:
                    e3:8a:16:e4:35:6f:01:8b:19:64:f4:0b:74:c7:74:
                    35:6a:70:7d:88:20:da:7e:21:a5:b3:d2:06:35:14:
                    0e:6a:36:8d:76:97:ea:7c:be:8e:40:0f:2b:ee:d2:
                    0d:6d:ec:7e:01:8f:c0:4e:45:cb:e5:74:37:ee:f0:
                    2c:b6:19:9d:f8:76:e3:21:7f:6d:28:2c:ae:a9:67:
                    15:0e:36:75:43:57:ad:09:d0:1b:32:78:92:7b:8c:
                    77:5f:1d:f4:db:e2:8a:d5:5e:42:f3:26:9d:c6:a5:
                    9f:e0:09:94:26:df:e3:db:ba:3a:da:22:e1:a7:c1:
                    f5:bb:b7:83:79:d4:95:f0:9a:91:36:78:3a:d6:ce:
                    d9:9f:fa:9a:26:d5:34:3f:d3:0b:a8:e5:f3:e6:fa:
                    0d:55:a3:06:0f:eb:41:50:2a:be:3d:10:9f:8b:a1:
                    17:4b
                Exponent: 65537 (0x10001)
        X509v3 extensions:
            X509v3 Authority Key Identifier: 
                keyid:33:A4:4C:82:C1:D0:27:30:31:10:66:F3:50:0D:F5:F5:BB:EF:9A:AB

            X509v3 Basic Constraints: 
                CA:FALSE
            X509v3 Key Usage: 
                Digital Signature
            X509v3 Extended Key Usage: 
                TLS Web Server Authentication
    Signature Algorithm: sha256WithRSAEncryption
         40:6e:1c:01:c5:41:f9:5a:fb:f9:d3:91:59:b2:d4:73:65:f9:
         d6:62:0f:ba:09:e3:8e:9e:a7:92:c1:58:61:4a:9c:8d:97:ca:
         dd:b8:af:56:80:7d:0f:cc:72:5d:64:ec:fd:76:4f:14:47:48:
         a7:84:04:1b:f7:10:fd:cf:7c:a9:dd:28:b0:39:9c:d0:77:7f:
         48:77:d1:da:42:28:45:b2:18:92:ea:5a:bb:05:2e:0e:7b:22:
         0e:ea:1f:85:dc:9b:16:c3:bf:e5:e4:67:1b:eb:88:65:df:3c:
         2a:04:0e:68:a2:b4:19:14:9d:53:ce:19:9f:9a:06:e1:d4:de:
         66:7a:c5:ce:d0:57:03:e4:34:2e:e1:40:d5:9e:45:3f:03:c4:
         2f:f6:2e:77:ad:e1:a0:46:51:6d:b8:c1:4c:a6:2c:b5:f9:2c:
         43:00:f5:a8:3b:04:38:c0:8d:e0:10:e2:06:67:eb:53:d4:3e:
         12:a7:66:d1:5b:4c:23:7f:3a:f0:cd:26:b6:b7:c8:ec:da:f1:
         f5:e5:21:a2:80:47:57:c4:df:57:e6:68:c1:c2:95:5c:a7:35:
         65:6f:86:e1:a2:fc:f2:04:28:cc:85:41:1d:61:96:d5:9e:bc:
         97:2e:d7:76:68:87:45:fe:37:e1:aa:2c:54:2b:58:5c:9a:76:
         26:57:64:7a
-----BEGIN CERTIFICATE-----
MIIDkTCCAnmgAwIBAgIBATANBgkqhkiG9w0BAQsFADBfMQswCQYDVQQGEwJVUzEL
MAkGA1UECAwCVkExFTATBgNVBAcMDEhhcnJpc29uYnVyZzENMAsGA1UECgwESVNB
VDEPMA0GA1UECwwGQlNJU0FUMQwwCgYDVQQDDANUTlMwHhcNMTcwMjIzMjM0ODEw
WhcNMTgwMjIzMjM0ODEwWjBnMQswCQYDVQQGEwJVUzELMAkGA1UECAwCVkExFTAT
BgNVBAcMDEhhcnJpc29uYnVyZzENMAsGA1UECgwESVNBVDEQMA4GA1UECwwHVGVs
ZWNvbTETMBEGA1UEAwwKREtDYXBzdG9uZTCCASIwDQYJKoZIhvcNAQEBBQADggEP
ADCCAQoCggEBALrGi5Y4ewsxQTAv1rqoQbmh/XUMsVWjUEWqoHZljjWzIEHKu7zo
gCHVOkT8uMCQTmKjDgX9IEtN/rBfKc5hmmMnDK+WOVQwblIijZkcflWFSvUzGlwF
q1LN44oW5DVvAYsZZPQLdMd0NWpwfYgg2n4hpbPSBjUUDmo2jXaX6ny+jkAPK+7S
DW3sfgGPwE5Fy+V0N+7wLLYZnfh24yF/bSgsrqlnFQ42dUNXrQnQGzJ4knuMd18d
9NviitVeQvMmncaln+AJlCbf49u6Otoi4afB9bu3g3nUlfCakTZ4OtbO2Z/6mibV
ND/TC6jl8+b6DVWjBg/rQVAqvj0Qn4uhF0sCAwEAAaNQME4wHwYDVR0jBBgwFoAU
M6RMgsHQJzAxEGbzUA319bvvmqswCQYDVR0TBAIwADALBgNVHQ8EBAMCB4AwEwYD
VR0lBAwwCgYIKwYBBQUHAwEwDQYJKoZIhvcNAQELBQADggEBAEBuHAHFQfla+/nT
kVmy1HNl+dZiD7oJ446ep5LBWGFKnI2Xyt24r1aAfQ/Mcl1k7P12TxRHSKeEBBv3
EP3PfKndKLA5nNB3f0h30dpCKEWyGJLqWrsFLg57Ig7qH4XcmxbDv+XkZxvriGXf
PCoEDmiitBkUnVPOGZ+aBuHU3mZ6xc7QVwPkNC7hQNWeRT8DxC/2Lnet4aBGUW24
wUymLLX5LEMA9ag7BDjAjeAQ4gZn61PUPhKnZtFbTCN/OvDNJra3yOza8fXlIaKA
R1fE31fmaMHClVynNWVvhuGi/PIEKMyFQR1hltWevJcu13Zoh0X+N+GqLFQrWFya
diZXZHo=
-----END CERTIFICATE-----
